; Function Attrs: mustprogress ssp uwtable
define void @_ZN6open3d7utility6Logger16GetPrintFunctionB5cxx11Ev(ptr dead_on_unwind noalias writable sret(%"class.std::function") align 8 initializes((0, 32)) %0, ptr noundef nonnull readonly align 8 captures(none) dereferenceable(8) %1) local_unnamed_addr #4 align 2 personality ptr @__gxx_personality_v0 {
  %3 = load ptr, ptr %1, align 8, !tbaa !42
  %4 = getelementptr inbounds nuw i8, ptr %0, i64 16
  %5 = getelementptr inbounds nuw i8, ptr %0, i64 24
  %6 = getelementptr inbounds nuw i8, ptr %3, i64 16
  tail call void @llvm.memset.p0.i64(ptr noundef nonnull align 8 dereferenceable(32) %0, i8 0, i64 32, i1 false)
  %7 = load ptr, ptr %6, align 8, !tbaa !4
  %.not.i.i.not.i = icmp eq ptr %7, null
  br i1 %.not.i.i.not.i, label %_ZNSt8functionIFvRKNSt7__cxx1112basic_stringIcSt11char_traitsIcESaIcEEEEEC2ERKS9_.exit, label %8

8:                                                ; preds = %2
  %9 = invoke noundef zeroext i1 %7(ptr noundef nonnull align 8 dereferenceable(32) %0, ptr noundef nonnull align 8 dereferenceable(32) %3, i32 noundef 2)
          to label %10 unwind label %14

10:                                               ; preds = %8
  %11 = getelementptr inbounds nuw i8, ptr %3, i64 24
  %12 = load ptr, ptr %11, align 8, !tbaa !44
  store ptr %12, ptr %5, align 8, !tbaa !44
  %13 = load ptr, ptr %6, align 8, !tbaa !4
  store ptr %13, ptr %4, align 8, !tbaa !4
  br label %_ZNSt8functionIFvRKNSt7__cxx1112basic_stringIcSt11char_traitsIcESaIcEEEEEC2ERKS9_.exit

14:                                               ; preds = %8
  %15 = landingpad { ptr, i32 }
          cleanup
  %16 = load ptr, ptr %4, align 8, !tbaa !4
  %.not.i.i = icmp eq ptr %16, null
  br i1 %.not.i.i, label %_ZNSt14_Function_baseD2Ev.exit.i, label %17

17:                                               ; preds = %14
  %18 = invoke noundef zeroext i1 %16(ptr noundef nonnull align 8 dereferenceable(32) %0, ptr noundef nonnull align 8 dereferenceable(32) %0, i32 noundef 3)
          to label %_ZNSt14_Function_baseD2Ev.exit.i unwind label %19

19:                                               ; preds = %17
  %20 = landingpad { ptr, i32 }
          catch ptr null
  %21 = extractvalue { ptr, i32 } %20, 0
  tail call void @__clang_call_terminate(ptr %21) #32
  unreachable

_ZNSt14_Function_baseD2Ev.exit.i:                 ; preds = %17, %14
  resume { ptr, i32 } %15

_ZNSt8functionIFvRKNSt7__cxx1112basic_stringIcSt11char_traitsIcESaIcEEEEEC2ERKS9_.exit: ; preds = %2, %10
  ret void
}